; Function Attrs: mustprogress nounwind uwtable
define void @_ZN14VrmlTranslator7Scanner15CreateHeapBlockEv(ptr nocapture noundef nonnull align 8 dereferenceable(160) %0) local_unnamed_addr #0 align 2 {
  %2 = load ptr, ptr %0, align 8
  %3 = getelementptr inbounds i8, ptr %0, i64 112
  %4 = load ptr, ptr %3, align 8
  %5 = icmp ult ptr %4, %2
  %6 = getelementptr inbounds i8, ptr %2, i64 65536
  %7 = icmp ugt ptr %4, %6
  %or.cond10 = select i1 %5, i1 true, i1 %7
  br i1 %or.cond10, label %.critedge, label %._crit_edge

.critedge:                                        ; preds = %1, %.critedge
  %8 = phi ptr [ %10, %.critedge ], [ %2, %1 ]
  %9 = phi ptr [ %13, %.critedge ], [ %6, %1 ]
  %10 = load ptr, ptr %9, align 8
  tail call void @free(ptr noundef %8) #22
  store ptr %10, ptr %0, align 8
  %11 = load ptr, ptr %3, align 8
  %12 = icmp ult ptr %11, %10
  %13 = getelementptr inbounds i8, ptr %10, i64 65536
  %14 = icmp ugt ptr %11, %13
  %or.cond = select i1 %12, i1 true, i1 %14
  br i1 %or.cond, label %.critedge, label %._crit_edge, !llvm.loop !21

._crit_edge:                                      ; preds = %.critedge, %1
  %15 = tail call noalias dereferenceable_or_null(65544) ptr @malloc(i64 noundef 65544) #25
  %16 = getelementptr inbounds i8, ptr %0, i64 24
  %17 = load ptr, ptr %16, align 8
  store ptr %15, ptr %17, align 8
  %18 = getelementptr inbounds i8, ptr %15, i64 65536
  store ptr %18, ptr %16, align 8
  store ptr null, ptr %18, align 8
  %19 = getelementptr inbounds i8, ptr %0, i64 8
  store ptr %15, ptr %19, align 8
  %20 = getelementptr inbounds i8, ptr %0, i64 16
  store ptr %15, ptr %20, align 8
  ret void
}